; Function Attrs: mustprogress uwtable
define void @_ZN3vcg7PanMode5ApplyEPNS_9TrackballENS_6Point3IfEE(ptr nocapture nonnull readnone align 8 %0, ptr noundef %1, <2 x float> %2, float %3) unnamed_addr #3 align 2 {
  %5 = alloca %"class.vcg::Point3", align 8
  store <2 x float> %2, ptr %5, align 8
  %.sroa.217.0..sroa_idx = getelementptr inbounds i8, ptr %5, i64 8
  store float %3, ptr %.sroa.217.0..sroa_idx, align 8
  %6 = getelementptr inbounds i8, ptr %1, i64 496
  %7 = tail call { <2 x float>, float } @_ZN3vcg10trackutils12HitViewPlaneEPNS_9TrackballERKNS_6Point3IfEE(ptr noundef %1, ptr noundef nonnull align 4 dereferenceable(12) %6)
  %.fca.0.extract9 = extractvalue { <2 x float>, float } %7, 0
  %.fca.1.extract10 = extractvalue { <2 x float>, float } %7, 1
  %8 = call { <2 x float>, float } @_ZN3vcg10trackutils12HitViewPlaneEPNS_9TrackballERKNS_6Point3IfEE(ptr noundef %1, ptr noundef nonnull align 4 dereferenceable(12) %5)
  %.fca.0.extract5 = extractvalue { <2 x float>, float } %8, 0
  %.fca.1.extract6 = extractvalue { <2 x float>, float } %8, 1
  %9 = fsub <2 x float> %.fca.0.extract5, %.fca.0.extract9
  %10 = fsub float %.fca.1.extract6, %.fca.1.extract10
  tail call void @_ZN3vcg9Trackball9TranslateENS_6Point3IfEE(ptr noundef nonnull align 8 dereferenceable(597) %1, <2 x float> %9, float %10)
  ret void
}